target datalayout = "e-m:e-p270:32:32-p271:32:32-p272:64:64-i64:64-i128:128-f80:128-n8:16:32:64-S128"
target triple = "x86_64-unknown-linux-gnu"

%"class.icu_75::UTF8CollationIterator" = type { %"class.icu_75::CollationIterator.base", ptr, i32, i32 }
%"class.icu_75::CollationIterator.base" = type <{ %"class.icu_75::UObject", ptr, ptr, %"class.icu_75::CollationIterator::CEBuffer", i32, [4 x i8], ptr, i32, i8 }>
%"class.icu_75::UObject" = type { ptr }
%"class.icu_75::CollationIterator::CEBuffer" = type { i32, %"class.icu_75::MaybeStackArray.0" }
%"class.icu_75::MaybeStackArray.0" = type { ptr, i32, i8, [40 x i64] }

@_ZN6icu_7512CollationFCD9tcccIndexE = external constant [2048 x i8], align 16
@_ZN6icu_7512CollationFCD8tcccBitsE = external constant [0 x i32], align 4

; Function Attrs: mustprogress nounwind uwtable
define linkonce_odr noundef signext i8 @_ZN6icu_7512CollationFCD7hasTcccEi(i32 noundef %c) #0 comdat align 2 {
entry:
  %c.addr = alloca i32, align 4
  %i = alloca i32, align 4
  store i32 %c, ptr %c.addr, align 4
  %0 = load i32, ptr %c.addr, align 4
  %cmp = icmp sge i32 %0, 192
  br i1 %cmp, label %land.lhs.true, label %land.end

land.lhs.true:                                    ; preds = %entry
  %1 = load i32, ptr %c.addr, align 4
  %shr = ashr i32 %1, 5
  %idxprom = sext i32 %shr to i64
  %arrayidx = getelementptr inbounds [2048 x i8], ptr @_ZN6icu_7512CollationFCD9tcccIndexE, i64 0, i64 %idxprom
  %2 = load i8, ptr %arrayidx, align 1
  %conv = zext i8 %2 to i32
  store i32 %conv, ptr %i, align 4
  %cmp1 = icmp ne i32 %conv, 0
  br i1 %cmp1, label %land.rhs, label %land.end

land.rhs:                                         ; preds = %land.lhs.true
  %3 = load i32, ptr %i, align 4
  %idxprom2 = sext i32 %3 to i64
  %arrayidx3 = getelementptr inbounds [0 x i32], ptr @_ZN6icu_7512CollationFCD8tcccBitsE, i64 0, i64 %idxprom2
  %4 = load i32, ptr %arrayidx3, align 4
  %5 = load i32, ptr %c.addr, align 4
  %and = and i32 %5, 31
  %shl = shl i32 1, %and
  %and4 = and i32 %4, %shl
  %cmp5 = icmp ne i32 %and4, 0
  br label %land.end

land.end:                                         ; preds = %land.rhs, %land.lhs.true, %entry
  %6 = phi i1 [ false, %land.lhs.true ], [ false, %entry ], [ %cmp5, %land.rhs ]
  %conv6 = zext i1 %6 to i8
  ret i8 %conv6
}

; Function Attrs: mustprogress uwtable
define noundef signext i8 @_ZNK6icu_7524FCDUTF8CollationIterator15previousHasTcccEv(ptr noundef nonnull align 8 dereferenceable(496) %this) #1 align 2 {
entry:
  %retval = alloca i8, align 1
  %this.addr = alloca ptr, align 8
  %c = alloca i32, align 4
  %i = alloca i32, align 4
  store ptr %this, ptr %this.addr, align 8
  %this1 = load ptr, ptr %this.addr, align 8
  %u8 = getelementptr inbounds %"class.icu_75::UTF8CollationIterator", ptr %this1, i32 0, i32 1
  %0 = load ptr, ptr %u8, align 8
  %pos = getelementptr inbounds %"class.icu_75::UTF8CollationIterator", ptr %this1, i32 0, i32 2
  %1 = load i32, ptr %pos, align 8
  %sub = sub nsw i32 %1, 1
  %idxprom = sext i32 %sub to i64
  %arrayidx = getelementptr inbounds i8, ptr %0, i64 %idxprom
  %2 = load i8, ptr %arrayidx, align 1
  %conv = zext i8 %2 to i32
  store i32 %conv, ptr %c, align 4
  %3 = load i32, ptr %c, align 4
  %and = and i32 %3, 128
  %cmp = icmp eq i32 %and, 0
  br i1 %cmp, label %if.then, label %if.end

if.then:                                          ; preds = %entry
  store i8 0, ptr %retval, align 1
  br label %return

if.end:                                           ; preds = %entry
  %pos2 = getelementptr inbounds %"class.icu_75::UTF8CollationIterator", ptr %this1, i32 0, i32 2
  %4 = load i32, ptr %pos2, align 8
  store i32 %4, ptr %i, align 4
  br label %do.body

do.body:                                          ; preds = %if.end
  %u83 = getelementptr inbounds %"class.icu_75::UTF8CollationIterator", ptr %this1, i32 0, i32 1
  %5 = load ptr, ptr %u83, align 8
  %6 = load i32, ptr %i, align 4
  %dec = add nsw i32 %6, -1
  store i32 %dec, ptr %i, align 4
  %idxprom4 = sext i32 %dec to i64
  %arrayidx5 = getelementptr inbounds i8, ptr %5, i64 %idxprom4
  %7 = load i8, ptr %arrayidx5, align 1
  %conv6 = zext i8 %7 to i32
  store i32 %conv6, ptr %c, align 4
  %8 = load i32, ptr %c, align 4
  %and7 = and i32 %8, 128
  %cmp8 = icmp eq i32 %and7, 0
  br i1 %cmp8, label %if.end11, label %if.then9

if.then9:                                         ; preds = %do.body
  %u810 = getelementptr inbounds %"class.icu_75::UTF8CollationIterator", ptr %this1, i32 0, i32 1
  %9 = load ptr, ptr %u810, align 8
  %10 = load i32, ptr %c, align 4
  %call = call i32 @utf8_prevCharSafeBody_75(ptr noundef %9, i32 noundef 0, ptr noundef %i, i32 noundef %10, i8 noundef signext -3)
  store i32 %call, ptr %c, align 4
  br label %if.end11

if.end11:                                         ; preds = %if.then9, %do.body
  br label %do.end

do.end:                                           ; preds = %if.end11
  %11 = load i32, ptr %c, align 4
  %cmp12 = icmp sgt i32 %11, 65535
  br i1 %cmp12, label %if.then13, label %if.end16

if.then13:                                        ; preds = %do.end
  %12 = load i32, ptr %c, align 4
  %shr = ashr i32 %12, 10
  %add = add nsw i32 %shr, 55232
  %conv14 = trunc i32 %add to i16
  %conv15 = zext i16 %conv14 to i32
  store i32 %conv15, ptr %c, align 4
  br label %if.end16

if.end16:                                         ; preds = %if.then13, %do.end
  %13 = load i32, ptr %c, align 4
  %call17 = call noundef signext i8 @_ZN6icu_7512CollationFCD7hasTcccEi(i32 noundef %13)
  store i8 %call17, ptr %retval, align 1
  br label %return

return:                                           ; preds = %if.end16, %if.then
  %14 = load i8, ptr %retval, align 1
  ret i8 %14
}