; Function Attrs: mustprogress uwtable
define noundef signext i8 @_ZNK6icu_7524FCDUTF8CollationIterator15previousHasTcccEv(ptr nocapture noundef nonnull readonly align 8 dereferenceable(496) %this) local_unnamed_addr #1 align 2 {
entry:
  %i = alloca i32, align 4
  %u8 = getelementptr inbounds i8, ptr %this, i64 392
  %0 = load ptr, ptr %u8, align 8
  %pos = getelementptr inbounds i8, ptr %this, i64 400
  %1 = load i32, ptr %pos, align 8
  %2 = sext i32 %1 to i64
  %3 = getelementptr i8, ptr %0, i64 %2
  %arrayidx = getelementptr i8, ptr %3, i64 -1
  %4 = load i8, ptr %arrayidx, align 1
  %cmp = icmp sgt i8 %4, -1
  br i1 %cmp, label %return, label %do.end

do.end:                                           ; preds = %entry
  %dec = add nsw i32 %1, -1
  store i32 %dec, ptr %i, align 4
  %conv6 = zext i8 %4 to i32
  %call = call i32 @utf8_prevCharSafeBody_75(ptr noundef nonnull %0, i32 noundef 0, ptr noundef nonnull %i, i32 noundef %conv6, i8 noundef signext -3)
  %cmp12 = icmp sgt i32 %call, 65535
  %shr = lshr i32 %call, 10
  %conv14 = add nuw nsw i32 %shr, 55232
  %conv15 = and i32 %conv14, 65535
  %c.1 = select i1 %cmp12, i32 %conv15, i32 %call
  %cmp.i = icmp sgt i32 %c.1, 191
  br i1 %cmp.i, label %land.lhs.true.i, label %return

land.lhs.true.i:                                  ; preds = %do.end
  %shr.i = lshr i32 %c.1, 5
  %idxprom.i = zext nneg i32 %shr.i to i64
  %arrayidx.i = getelementptr inbounds [2048 x i8], ptr @_ZN6icu_7512CollationFCD9tcccIndexE, i64 0, i64 %idxprom.i
  %5 = load i8, ptr %arrayidx.i, align 1
  %cmp1.not.i = icmp eq i8 %5, 0
  br i1 %cmp1.not.i, label %return, label %land.rhs.i

land.rhs.i:                                       ; preds = %land.lhs.true.i
  %idxprom2.i = zext i8 %5 to i64
  %arrayidx3.i = getelementptr inbounds [0 x i32], ptr @_ZN6icu_7512CollationFCD8tcccBitsE, i64 0, i64 %idxprom2.i
  %6 = load i32, ptr %arrayidx3.i, align 4
  %and.i = and i32 %c.1, 31
  %shl.i = shl nuw i32 1, %and.i
  %and4.i = and i32 %6, %shl.i
  %cmp5.i = icmp ne i32 %and4.i, 0
  %7 = zext i1 %cmp5.i to i8
  br label %return

return:                                           ; preds = %land.rhs.i, %land.lhs.true.i, %do.end, %entry
  %retval.0 = phi i8 [ 0, %entry ], [ 0, %land.lhs.true.i ], [ 0, %do.end ], [ %7, %land.rhs.i ]
  ret i8 %retval.0
}